; Function Attrs: nounwind uwtable
define ptr @l_Std_DHashMap_Internal_AssocList_get_x21___at_Lean_Compiler_LCNF_JoinPointContextExtender_replaceFVar___spec__1(ptr noundef %0, ptr noundef %1, ptr noundef %2) local_unnamed_addr #1 {
  br label %lean_inc.exit

lean_inc.exit:                                    ; preds = %16, %3
  %.016 = phi ptr [ %2, %3 ], [ %22, %16 ]
  %4 = ptrtoint ptr %.016 to i64
  %5 = and i64 %4, 1
  %.not.i18 = icmp eq i64 %5, 0
  br i1 %.not.i18, label %9, label %6

6:                                                ; preds = %lean_inc.exit
  %7 = lshr i64 %4, 1
  %8 = trunc i64 %7 to i32
  br label %lean_obj_tag.exit

9:                                                ; preds = %lean_inc.exit
  %10 = getelementptr i8, ptr %.016, i64 4
  %.val.i = load i32, ptr %10, align 4
  %11 = lshr i32 %.val.i, 24
  br label %lean_obj_tag.exit

lean_obj_tag.exit:                                ; preds = %6, %9
  %.0.i = phi i32 [ %8, %6 ], [ %11, %9 ]
  %12 = icmp eq i32 %.0.i, 0
  br i1 %12, label %13, label %16

13:                                               ; preds = %lean_obj_tag.exit
  %14 = load ptr, ptr @l_Std_DHashMap_Internal_AssocList_get_x21___at_Lean_Compiler_LCNF_JoinPointContextExtender_replaceFVar___spec__1___closed__4, align 8, !tbaa !4
  %15 = tail call ptr @l_panic___rarg(ptr noundef %0, ptr noundef %14) #5
  br label %lean_inc.exit.thread

16:                                               ; preds = %lean_obj_tag.exit
  %17 = getelementptr inbounds nuw i8, ptr %.016, i64 8
  %18 = load ptr, ptr %17, align 8, !tbaa !4
  %19 = getelementptr inbounds nuw i8, ptr %.016, i64 16
  %20 = load ptr, ptr %19, align 8, !tbaa !4
  %21 = getelementptr inbounds nuw i8, ptr %.016, i64 24
  %22 = load ptr, ptr %21, align 8, !tbaa !4
  %23 = tail call zeroext i8 @lean_name_eq(ptr noundef %18, ptr noundef %1) #5
  %24 = icmp eq i8 %23, 0
  br i1 %24, label %lean_inc.exit, label %25

25:                                               ; preds = %16
  %26 = ptrtoint ptr %0 to i64
  %27 = and i64 %26, 1
  %.not = icmp eq i64 %27, 0
  br i1 %.not, label %28, label %lean_dec.exit

28:                                               ; preds = %25
  %29 = load i32, ptr %0, align 4, !tbaa !8
  %30 = icmp sgt i32 %29, 1
  br i1 %30, label %31, label %33, !prof !11

31:                                               ; preds = %28
  %32 = add nsw i32 %29, -1
  store i32 %32, ptr %0, align 4, !tbaa !8
  br label %lean_dec.exit

33:                                               ; preds = %28
  %.not.i = icmp eq i32 %29, 0
  br i1 %.not.i, label %lean_dec.exit, label %34

34:                                               ; preds = %33
  tail call void @lean_dec_ref_cold(ptr noundef nonnull %0) #5
  br label %lean_dec.exit

lean_dec.exit:                                    ; preds = %34, %33, %31, %25
  %35 = ptrtoint ptr %20 to i64
  %36 = and i64 %35, 1
  %.not26 = icmp eq i64 %36, 0
  br i1 %.not26, label %37, label %lean_inc.exit.thread

37:                                               ; preds = %lean_dec.exit
  %.val.i19 = load i32, ptr %20, align 4, !tbaa !8
  %38 = icmp sgt i32 %.val.i19, 0
  br i1 %38, label %39, label %41, !prof !11

39:                                               ; preds = %37
  %40 = add nuw i32 %.val.i19, 1
  store i32 %40, ptr %20, align 4, !tbaa !8
  br label %lean_inc.exit.thread

41:                                               ; preds = %37
  %.not.i20 = icmp eq i32 %.val.i19, 0
  br i1 %.not.i20, label %lean_inc.exit.thread, label %42

42:                                               ; preds = %41
  tail call void @lean_inc_ref_cold(ptr noundef nonnull %20) #5
  br label %lean_inc.exit.thread

lean_inc.exit.thread:                             ; preds = %lean_dec.exit, %39, %41, %42, %13
  %.1 = phi ptr [ %15, %13 ], [ %20, %42 ], [ %20, %41 ], [ %20, %39 ], [ %20, %lean_dec.exit ]
  ret ptr %.1
}